; Function Attrs: mustprogress uwtable
define internal void @_ZN5faiss12_GLOBAL__N_118PQDistanceComputerINS_16PQDecoderGenericEE9set_queryEPKf(ptr noundef nonnull readonly align 8 captures(none) dereferenceable(96) %0, ptr noundef %1) unnamed_addr #1 align 2 {
  %3 = getelementptr inbounds nuw i8, ptr %0, i64 32
  %4 = load i32, ptr %3, align 8, !tbaa !147
  %5 = icmp eq i32 %4, 1
  %6 = getelementptr inbounds nuw i8, ptr %0, i64 48
  %7 = load ptr, ptr %6, align 8, !tbaa !149
  %8 = getelementptr inbounds nuw i8, ptr %0, i64 64
  %9 = load ptr, ptr %8, align 8, !tbaa !7
  br i1 %5, label %10, label %11

10:                                               ; preds = %2
  tail call void @_ZNK5faiss16ProductQuantizer22compute_distance_tableEPKfPf(ptr noundef nonnull align 8 dereferenceable(216) %7, ptr noundef %1, ptr noundef %9)
  br label %12

11:                                               ; preds = %2
  tail call void @_ZNK5faiss16ProductQuantizer24compute_inner_prod_tableEPKfPf(ptr noundef nonnull align 8 dereferenceable(216) %7, ptr noundef %1, ptr noundef %9)
  br label %12

12:                                               ; preds = %11, %10
  ret void
}